; Function Attrs: mustprogress nofree nosync nounwind memory(readwrite, inaccessiblemem: none) uwtable
define internal fastcc void @_ZN4ncnnL21qsort_descent_inplaceINS_8BBoxRectEEEvRSt6vectorIT_SaIS3_EERS2_IfSaIfEEii(ptr nocapture noundef nonnull readonly align 8 dereferenceable(24) %0, ptr nocapture noundef nonnull readonly align 8 dereferenceable(24) %1, i32 noundef %2, i32 noundef %3) unnamed_addr #13 {
  %5 = alloca %"struct.ncnn::BBoxRect", align 4
  %.pre61 = load ptr, ptr %1, align 8
  br label %tailrecurse

tailrecurse:                                      ; preds = %42, %4
  %.pre59 = phi ptr [ %.pre61, %4 ], [ %.pre5964, %42 ]
  %6 = phi ptr [ %.pre61, %4 ], [ %43, %42 ]
  %.tr45 = phi i32 [ %2, %4 ], [ %.0.lcssa, %42 ]
  %7 = add nsw i32 %.tr45, %3
  %8 = sdiv i32 %7, 2
  %9 = sext i32 %8 to i64
  %10 = getelementptr inbounds float, ptr %6, i64 %9
  %11 = load float, ptr %10, align 4
  %.not50 = icmp sgt i32 %.tr45, %3
  br i1 %.not50, label %._crit_edge, label %.preheader47

.preheader47:                                     ; preds = %tailrecurse, %37
  %.pre5963 = phi ptr [ %.pre5962, %37 ], [ %.pre59, %tailrecurse ]
  %12 = phi ptr [ %38, %37 ], [ %.pre59, %tailrecurse ]
  %.052 = phi i32 [ %.2, %37 ], [ %.tr45, %tailrecurse ]
  %.03851 = phi i32 [ %.240, %37 ], [ %3, %tailrecurse ]
  %13 = sext i32 %.052 to i64
  br label %14

14:                                               ; preds = %14, %.preheader47
  %indvars.iv = phi i64 [ %indvars.iv.next, %14 ], [ %13, %.preheader47 ]
  %15 = getelementptr inbounds float, ptr %12, i64 %indvars.iv
  %16 = load float, ptr %15, align 4
  %17 = fcmp fast ogt float %16, %11
  %indvars.iv.next = add nsw i64 %indvars.iv, 1
  br i1 %17, label %14, label %.preheader, !llvm.loop !16

.preheader:                                       ; preds = %14
  %18 = sext i32 %.03851 to i64
  br label %19

19:                                               ; preds = %19, %.preheader
  %indvars.iv56 = phi i64 [ %indvars.iv.next57, %19 ], [ %18, %.preheader ]
  %20 = getelementptr inbounds float, ptr %12, i64 %indvars.iv56
  %21 = load float, ptr %20, align 4
  %22 = fcmp fast olt float %21, %11
  %indvars.iv.next57 = add nsw i64 %indvars.iv56, -1
  br i1 %22, label %19, label %23, !llvm.loop !17

23:                                               ; preds = %19
  %24 = trunc nsw i64 %indvars.iv to i32
  %25 = trunc nsw i64 %indvars.iv56 to i32
  %.not43 = icmp sgt i64 %indvars.iv, %indvars.iv56
  br i1 %.not43, label %37, label %26

26:                                               ; preds = %23
  %27 = load ptr, ptr %0, align 8
  %28 = getelementptr inbounds %"struct.ncnn::BBoxRect", ptr %27, i64 %indvars.iv
  %29 = getelementptr inbounds %"struct.ncnn::BBoxRect", ptr %27, i64 %indvars.iv56
  call void @llvm.lifetime.start.p0(i64 20, ptr nonnull %5)
  call void @llvm.memcpy.p0.p0.i64(ptr noundef nonnull align 4 dereferenceable(20) %5, ptr noundef nonnull align 4 dereferenceable(20) %28, i64 20, i1 false)
  tail call void @llvm.memcpy.p0.p0.i64(ptr noundef nonnull align 4 dereferenceable(20) %28, ptr noundef nonnull align 4 dereferenceable(20) %29, i64 20, i1 false)
  call void @llvm.memcpy.p0.p0.i64(ptr noundef nonnull align 4 dereferenceable(20) %29, ptr noundef nonnull align 4 dereferenceable(20) %5, i64 20, i1 false)
  call void @llvm.lifetime.end.p0(i64 20, ptr nonnull %5)
  %30 = load ptr, ptr %1, align 8
  %31 = getelementptr inbounds float, ptr %30, i64 %indvars.iv
  %32 = getelementptr inbounds float, ptr %30, i64 %indvars.iv56
  %33 = load float, ptr %31, align 4
  %34 = load float, ptr %32, align 4
  store float %34, ptr %31, align 4
  store float %33, ptr %32, align 4
  %35 = add nsw i32 %24, 1
  %36 = add nsw i32 %25, -1
  %.pre = load ptr, ptr %1, align 8
  br label %37

37:                                               ; preds = %26, %23
  %.pre5962 = phi ptr [ %.pre, %26 ], [ %.pre5963, %23 ]
  %38 = phi ptr [ %.pre, %26 ], [ %12, %23 ]
  %.240 = phi i32 [ %36, %26 ], [ %25, %23 ]
  %.2 = phi i32 [ %35, %26 ], [ %24, %23 ]
  %.not = icmp sgt i32 %.2, %.240
  br i1 %.not, label %._crit_edge, label %.preheader47, !llvm.loop !18

._crit_edge:                                      ; preds = %37, %tailrecurse
  %.pre5965 = phi ptr [ %.pre59, %tailrecurse ], [ %.pre5962, %37 ]
  %39 = phi ptr [ %6, %tailrecurse ], [ %38, %37 ]
  %.038.lcssa = phi i32 [ %3, %tailrecurse ], [ %.240, %37 ]
  %.0.lcssa = phi i32 [ %.tr45, %tailrecurse ], [ %.2, %37 ]
  %40 = icmp slt i32 %.tr45, %.038.lcssa
  br i1 %40, label %41, label %42

41:                                               ; preds = %._crit_edge
  tail call fastcc void @_ZN4ncnnL21qsort_descent_inplaceINS_8BBoxRectEEEvRSt6vectorIT_SaIS3_EERS2_IfSaIfEEii(ptr noundef nonnull align 8 dereferenceable(24) %0, ptr noundef nonnull align 8 dereferenceable(24) %1, i32 noundef %.tr45, i32 noundef %.038.lcssa)
  %.pre60 = load ptr, ptr %1, align 8
  br label %42

42:                                               ; preds = %41, %._crit_edge
  %.pre5964 = phi ptr [ %.pre60, %41 ], [ %.pre5965, %._crit_edge ]
  %43 = phi ptr [ %.pre60, %41 ], [ %39, %._crit_edge ]
  %44 = icmp slt i32 %.0.lcssa, %3
  br i1 %44, label %tailrecurse, label %45

45:                                               ; preds = %42
  ret void
}